target datalayout = "e-m:e-p270:32:32-p271:32:32-p272:64:64-i64:64-i128:128-f80:128-n8:16:32:64-S128"
target triple = "x86_64-pc-linux-gnu"

%struct.AVFilterContext = type { ptr, ptr, ptr, ptr, ptr, i32, ptr, ptr, i32, ptr, ptr, i32, i32, ptr, ptr, ptr, ptr, i32, ptr, i32, i32 }
%struct.LagfunContext = type { ptr, float, i32, i32, i32, [4 x i32], [4 x i32], [4 x i32], [4 x ptr], [2 x ptr] }
%struct.AVFilterLink = type { ptr, ptr, ptr, ptr, i32, i32, i32, i32, %struct.AVRational, i32, i32, i32, %struct.AVChannelLayout, %struct.AVRational, ptr, i32, %struct.AVFilterFormatsConfig, %struct.AVFilterFormatsConfig }
%struct.AVChannelLayout = type { i32, i32, %union.anon.1, ptr }
%union.anon.1 = type { i64 }
%struct.AVRational = type { i32, i32 }
%struct.AVFilterFormatsConfig = type { ptr, ptr, ptr, ptr, ptr }
%struct.AVPixFmtDescriptor = type { ptr, i8, i8, i8, i64, [4 x %struct.AVComponentDescriptor], ptr }
%struct.AVComponentDescriptor = type { i32, i32, i32, i32, i32 }

; Function Attrs: nounwind uwtable
define internal i32 @config_output(ptr noundef %0) #2 {
  %2 = alloca i32, align 4
  %3 = alloca ptr, align 8
  %4 = alloca ptr, align 8
  %5 = alloca ptr, align 8
  %6 = alloca ptr, align 8
  %7 = alloca ptr, align 8
  %8 = alloca i32, align 4
  %9 = alloca i32, align 4
  %10 = alloca i32, align 4
  store ptr %0, ptr %3, align 8, !tbaa !30
  call void @llvm.lifetime.start.p0(i64 8, ptr %4) #7
  %11 = load ptr, ptr %3, align 8, !tbaa !30
  %12 = getelementptr inbounds nuw %struct.AVFilterLink, ptr %11, i32 0, i32 0
  %13 = load ptr, ptr %12, align 8, !tbaa !50
  store ptr %13, ptr %4, align 8, !tbaa !4
  call void @llvm.lifetime.start.p0(i64 8, ptr %5) #7
  %14 = load ptr, ptr %4, align 8, !tbaa !4
  %15 = getelementptr inbounds nuw %struct.AVFilterContext, ptr %14, i32 0, i32 9
  %16 = load ptr, ptr %15, align 8, !tbaa !9
  store ptr %16, ptr %5, align 8, !tbaa !22
  call void @llvm.lifetime.start.p0(i64 8, ptr %6) #7
  %17 = load ptr, ptr %4, align 8, !tbaa !4
  %18 = getelementptr inbounds nuw %struct.AVFilterContext, ptr %17, i32 0, i32 4
  %19 = load ptr, ptr %18, align 8, !tbaa !51
  %20 = getelementptr inbounds ptr, ptr %19, i64 0
  %21 = load ptr, ptr %20, align 8, !tbaa !30
  store ptr %21, ptr %6, align 8, !tbaa !30
  call void @llvm.lifetime.start.p0(i64 8, ptr %7) #7
  call void @llvm.lifetime.start.p0(i64 4, ptr %8) #7
  %22 = load ptr, ptr %3, align 8, !tbaa !30
  %23 = getelementptr inbounds nuw %struct.AVFilterLink, ptr %22, i32 0, i32 5
  %24 = load i32, ptr %23, align 4, !tbaa !52
  %25 = call ptr @av_pix_fmt_desc_get(i32 noundef %24)
  store ptr %25, ptr %7, align 8, !tbaa !53
  %26 = load ptr, ptr %7, align 8, !tbaa !53
  %27 = icmp ne ptr %26, null
  br i1 %27, label %29, label %28

28:                                               ; preds = %1
  store i32 -558323010, ptr %2, align 4
  store i32 1, ptr %9, align 4
  br label %228

29:                                               ; preds = %1
  %30 = load ptr, ptr %3, align 8, !tbaa !30
  %31 = getelementptr inbounds nuw %struct.AVFilterLink, ptr %30, i32 0, i32 5
  %32 = load i32, ptr %31, align 4, !tbaa !52
  %33 = call i32 @av_pix_fmt_count_planes(i32 noundef %32)
  %34 = load ptr, ptr %5, align 8, !tbaa !22
  %35 = getelementptr inbounds nuw %struct.LagfunContext, ptr %34, i32 0, i32 4
  store i32 %33, ptr %35, align 4, !tbaa !25
  %36 = load ptr, ptr %7, align 8, !tbaa !53
  %37 = getelementptr inbounds nuw %struct.AVPixFmtDescriptor, ptr %36, i32 0, i32 5
  %38 = getelementptr inbounds [4 x %struct.AVComponentDescriptor], ptr %37, i64 0, i64 0
  %39 = getelementptr inbounds nuw %struct.AVComponentDescriptor, ptr %38, i32 0, i32 4
  %40 = load i32, ptr %39, align 8, !tbaa !55
  %41 = load ptr, ptr %5, align 8, !tbaa !22
  %42 = getelementptr inbounds nuw %struct.LagfunContext, ptr %41, i32 0, i32 3
  store i32 %40, ptr %42, align 8, !tbaa !57
  %43 = load ptr, ptr %5, align 8, !tbaa !22
  %44 = getelementptr inbounds nuw %struct.LagfunContext, ptr %43, i32 0, i32 3
  %45 = load i32, ptr %44, align 8, !tbaa !57
  %46 = icmp sle i32 %45, 8
  br i1 %46, label %47, label %48

47:                                               ; preds = %29
  br label %54

48:                                               ; preds = %29
  %49 = load ptr, ptr %5, align 8, !tbaa !22
  %50 = getelementptr inbounds nuw %struct.LagfunContext, ptr %49, i32 0, i32 3
  %51 = load i32, ptr %50, align 8, !tbaa !57
  %52 = icmp sle i32 %51, 16
  %53 = select i1 %52, ptr @lagfun_frame16, ptr @lagfun_frame32
  br label %54

54:                                               ; preds = %48, %47
  %55 = phi ptr [ @lagfun_frame8, %47 ], [ %53, %48 ]
  %56 = load ptr, ptr %5, align 8, !tbaa !22
  %57 = getelementptr inbounds nuw %struct.LagfunContext, ptr %56, i32 0, i32 9
  %58 = getelementptr inbounds [2 x ptr], ptr %57, i64 0, i64 0
  store ptr %55, ptr %58, align 8, !tbaa !49
  %59 = load ptr, ptr %5, align 8, !tbaa !22
  %60 = getelementptr inbounds nuw %struct.LagfunContext, ptr %59, i32 0, i32 3
  %61 = load i32, ptr %60, align 8, !tbaa !57
  %62 = icmp sle i32 %61, 8
  br i1 %62, label %63, label %64

63:                                               ; preds = %54
  br label %70

64:                                               ; preds = %54
  %65 = load ptr, ptr %5, align 8, !tbaa !22
  %66 = getelementptr inbounds nuw %struct.LagfunContext, ptr %65, i32 0, i32 3
  %67 = load i32, ptr %66, align 8, !tbaa !57
  %68 = icmp sle i32 %67, 16
  %69 = select i1 %68, ptr @lagfun_framed16, ptr @lagfun_framed32
  br label %70

70:                                               ; preds = %64, %63
  %71 = phi ptr [ @lagfun_framed8, %63 ], [ %69, %64 ]
  %72 = load ptr, ptr %5, align 8, !tbaa !22
  %73 = getelementptr inbounds nuw %struct.LagfunContext, ptr %72, i32 0, i32 9
  %74 = getelementptr inbounds [2 x ptr], ptr %73, i64 0, i64 1
  store ptr %71, ptr %74, align 8, !tbaa !49
  %75 = load ptr, ptr %5, align 8, !tbaa !22
  %76 = getelementptr inbounds nuw %struct.LagfunContext, ptr %75, i32 0, i32 5
  %77 = getelementptr inbounds [4 x i32], ptr %76, i64 0, i64 0
  %78 = load ptr, ptr %6, align 8, !tbaa !30
  %79 = getelementptr inbounds nuw %struct.AVFilterLink, ptr %78, i32 0, i32 5
  %80 = load i32, ptr %79, align 4, !tbaa !52
  %81 = load ptr, ptr %6, align 8, !tbaa !30
  %82 = getelementptr inbounds nuw %struct.AVFilterLink, ptr %81, i32 0, i32 6
  %83 = load i32, ptr %82, align 8, !tbaa !43
  %84 = call i32 @av_image_fill_linesizes(ptr noundef %77, i32 noundef %80, i32 noundef %83)
  store i32 %84, ptr %8, align 4, !tbaa !24
  %85 = icmp slt i32 %84, 0
  br i1 %85, label %86, label %88

86:                                               ; preds = %70
  %87 = load i32, ptr %8, align 4, !tbaa !24
  store i32 %87, ptr %2, align 4
  store i32 1, ptr %9, align 4
  br label %228

88:                                               ; preds = %70
  %89 = load ptr, ptr %7, align 8, !tbaa !53
  %90 = getelementptr inbounds nuw %struct.AVPixFmtDescriptor, ptr %89, i32 0, i32 2
  %91 = load i8, ptr %90, align 1, !tbaa !58
  %92 = call i1 @llvm.is.constant.i8(i8 %91)
  br i1 %92, label %104, label %93

93:                                               ; preds = %88
  %94 = load ptr, ptr %6, align 8, !tbaa !30
  %95 = getelementptr inbounds nuw %struct.AVFilterLink, ptr %94, i32 0, i32 6
  %96 = load i32, ptr %95, align 8, !tbaa !43
  %97 = sub nsw i32 0, %96
  %98 = load ptr, ptr %7, align 8, !tbaa !53
  %99 = getelementptr inbounds nuw %struct.AVPixFmtDescriptor, ptr %98, i32 0, i32 2
  %100 = load i8, ptr %99, align 1, !tbaa !58
  %101 = zext i8 %100 to i32
  %102 = ashr i32 %97, %101
  %103 = sub nsw i32 0, %102
  br label %120

104:                                              ; preds = %88
  %105 = load ptr, ptr %6, align 8, !tbaa !30
  %106 = getelementptr inbounds nuw %struct.AVFilterLink, ptr %105, i32 0, i32 6
  %107 = load i32, ptr %106, align 8, !tbaa !43
  %108 = load ptr, ptr %7, align 8, !tbaa !53
  %109 = getelementptr inbounds nuw %struct.AVPixFmtDescriptor, ptr %108, i32 0, i32 2
  %110 = load i8, ptr %109, align 1, !tbaa !58
  %111 = zext i8 %110 to i32
  %112 = shl i32 1, %111
  %113 = add nsw i32 %107, %112
  %114 = sub nsw i32 %113, 1
  %115 = load ptr, ptr %7, align 8, !tbaa !53
  %116 = getelementptr inbounds nuw %struct.AVPixFmtDescriptor, ptr %115, i32 0, i32 2
  %117 = load i8, ptr %116, align 1, !tbaa !58
  %118 = zext i8 %117 to i32
  %119 = ashr i32 %114, %118
  br label %120

120:                                              ; preds = %104, %93
  %121 = phi i32 [ %103, %93 ], [ %119, %104 ]
  %122 = load ptr, ptr %5, align 8, !tbaa !22
  %123 = getelementptr inbounds nuw %struct.LagfunContext, ptr %122, i32 0, i32 6
  %124 = getelementptr inbounds [4 x i32], ptr %123, i64 0, i64 2
  store i32 %121, ptr %124, align 8, !tbaa !24
  %125 = load ptr, ptr %5, align 8, !tbaa !22
  %126 = getelementptr inbounds nuw %struct.LagfunContext, ptr %125, i32 0, i32 6
  %127 = getelementptr inbounds [4 x i32], ptr %126, i64 0, i64 1
  store i32 %121, ptr %127, align 4, !tbaa !24
  %128 = load ptr, ptr %6, align 8, !tbaa !30
  %129 = getelementptr inbounds nuw %struct.AVFilterLink, ptr %128, i32 0, i32 6
  %130 = load i32, ptr %129, align 8, !tbaa !43
  %131 = load ptr, ptr %5, align 8, !tbaa !22
  %132 = getelementptr inbounds nuw %struct.LagfunContext, ptr %131, i32 0, i32 6
  %133 = getelementptr inbounds [4 x i32], ptr %132, i64 0, i64 3
  store i32 %130, ptr %133, align 4, !tbaa !24
  %134 = load ptr, ptr %5, align 8, !tbaa !22
  %135 = getelementptr inbounds nuw %struct.LagfunContext, ptr %134, i32 0, i32 6
  %136 = getelementptr inbounds [4 x i32], ptr %135, i64 0, i64 0
  store i32 %130, ptr %136, align 8, !tbaa !24
  %137 = load ptr, ptr %7, align 8, !tbaa !53
  %138 = getelementptr inbounds nuw %struct.AVPixFmtDescriptor, ptr %137, i32 0, i32 3
  %139 = load i8, ptr %138, align 2, !tbaa !61
  %140 = call i1 @llvm.is.constant.i8(i8 %139)
  br i1 %140, label %152, label %141

141:                                              ; preds = %120
  %142 = load ptr, ptr %6, align 8, !tbaa !30
  %143 = getelementptr inbounds nuw %struct.AVFilterLink, ptr %142, i32 0, i32 7
  %144 = load i32, ptr %143, align 4, !tbaa !44
  %145 = sub nsw i32 0, %144
  %146 = load ptr, ptr %7, align 8, !tbaa !53
  %147 = getelementptr inbounds nuw %struct.AVPixFmtDescriptor, ptr %146, i32 0, i32 3
  %148 = load i8, ptr %147, align 2, !tbaa !61
  %149 = zext i8 %148 to i32
  %150 = ashr i32 %145, %149
  %151 = sub nsw i32 0, %150
  br label %168

152:                                              ; preds = %120
  %153 = load ptr, ptr %6, align 8, !tbaa !30
  %154 = getelementptr inbounds nuw %struct.AVFilterLink, ptr %153, i32 0, i32 7
  %155 = load i32, ptr %154, align 4, !tbaa !44
  %156 = load ptr, ptr %7, align 8, !tbaa !53
  %157 = getelementptr inbounds nuw %struct.AVPixFmtDescriptor, ptr %156, i32 0, i32 3
  %158 = load i8, ptr %157, align 2, !tbaa !61
  %159 = zext i8 %158 to i32
  %160 = shl i32 1, %159
  %161 = add nsw i32 %155, %160
  %162 = sub nsw i32 %161, 1
  %163 = load ptr, ptr %7, align 8, !tbaa !53
  %164 = getelementptr inbounds nuw %struct.AVPixFmtDescriptor, ptr %163, i32 0, i32 3
  %165 = load i8, ptr %164, align 2, !tbaa !61
  %166 = zext i8 %165 to i32
  %167 = ashr i32 %162, %166
  br label %168

168:                                              ; preds = %152, %141
  %169 = phi i32 [ %151, %141 ], [ %167, %152 ]
  %170 = load ptr, ptr %5, align 8, !tbaa !22
  %171 = getelementptr inbounds nuw %struct.LagfunContext, ptr %170, i32 0, i32 7
  %172 = getelementptr inbounds [4 x i32], ptr %171, i64 0, i64 2
  store i32 %169, ptr %172, align 8, !tbaa !24
  %173 = load ptr, ptr %5, align 8, !tbaa !22
  %174 = getelementptr inbounds nuw %struct.LagfunContext, ptr %173, i32 0, i32 7
  %175 = getelementptr inbounds [4 x i32], ptr %174, i64 0, i64 1
  store i32 %169, ptr %175, align 4, !tbaa !24
  %176 = load ptr, ptr %6, align 8, !tbaa !30
  %177 = getelementptr inbounds nuw %struct.AVFilterLink, ptr %176, i32 0, i32 7
  %178 = load i32, ptr %177, align 4, !tbaa !44
  %179 = load ptr, ptr %5, align 8, !tbaa !22
  %180 = getelementptr inbounds nuw %struct.LagfunContext, ptr %179, i32 0, i32 7
  %181 = getelementptr inbounds [4 x i32], ptr %180, i64 0, i64 3
  store i32 %178, ptr %181, align 4, !tbaa !24
  %182 = load ptr, ptr %5, align 8, !tbaa !22
  %183 = getelementptr inbounds nuw %struct.LagfunContext, ptr %182, i32 0, i32 7
  %184 = getelementptr inbounds [4 x i32], ptr %183, i64 0, i64 0
  store i32 %178, ptr %184, align 8, !tbaa !24
  call void @llvm.lifetime.start.p0(i64 4, ptr %10) #7
  store i32 0, ptr %10, align 4, !tbaa !24
  br label %185

185:                                              ; preds = %222, %168
  %186 = load i32, ptr %10, align 4, !tbaa !24
  %187 = load ptr, ptr %5, align 8, !tbaa !22
  %188 = getelementptr inbounds nuw %struct.LagfunContext, ptr %187, i32 0, i32 4
  %189 = load i32, ptr %188, align 4, !tbaa !25
  %190 = icmp slt i32 %186, %189
  br i1 %190, label %192, label %191

191:                                              ; preds = %185
  store i32 2, ptr %9, align 4
  br label %225

192:                                              ; preds = %185
  %193 = load ptr, ptr %5, align 8, !tbaa !22
  %194 = getelementptr inbounds nuw %struct.LagfunContext, ptr %193, i32 0, i32 6
  %195 = load i32, ptr %10, align 4, !tbaa !24
  %196 = sext i32 %195 to i64
  %197 = getelementptr inbounds [4 x i32], ptr %194, i64 0, i64 %196
  %198 = load i32, ptr %197, align 4, !tbaa !24
  %199 = load ptr, ptr %5, align 8, !tbaa !22
  %200 = getelementptr inbounds nuw %struct.LagfunContext, ptr %199, i32 0, i32 7
  %201 = load i32, ptr %10, align 4, !tbaa !24
  %202 = sext i32 %201 to i64
  %203 = getelementptr inbounds [4 x i32], ptr %200, i64 0, i64 %202
  %204 = load i32, ptr %203, align 4, !tbaa !24
  %205 = mul nsw i32 %198, %204
  %206 = sext i32 %205 to i64
  %207 = call noalias ptr @av_calloc(i64 noundef %206, i64 noundef 4)
  %208 = load ptr, ptr %5, align 8, !tbaa !22
  %209 = getelementptr inbounds nuw %struct.LagfunContext, ptr %208, i32 0, i32 8
  %210 = load i32, ptr %10, align 4, !tbaa !24
  %211 = sext i32 %210 to i64
  %212 = getelementptr inbounds [4 x ptr], ptr %209, i64 0, i64 %211
  store ptr %207, ptr %212, align 8, !tbaa !62
  %213 = load ptr, ptr %5, align 8, !tbaa !22
  %214 = getelementptr inbounds nuw %struct.LagfunContext, ptr %213, i32 0, i32 8
  %215 = load i32, ptr %10, align 4, !tbaa !24
  %216 = sext i32 %215 to i64
  %217 = getelementptr inbounds [4 x ptr], ptr %214, i64 0, i64 %216
  %218 = load ptr, ptr %217, align 8, !tbaa !62
  %219 = icmp ne ptr %218, null
  br i1 %219, label %221, label %220

220:                                              ; preds = %192
  store i32 -12, ptr %2, align 4
  store i32 1, ptr %9, align 4
  br label %225

221:                                              ; preds = %192
  br label %222

222:                                              ; preds = %221
  %223 = load i32, ptr %10, align 4, !tbaa !24
  %224 = add nsw i32 %223, 1
  store i32 %224, ptr %10, align 4, !tbaa !24
  br label %185, !llvm.loop !64

225:                                              ; preds = %220, %191
  call void @llvm.lifetime.end.p0(i64 4, ptr %10) #7
  %226 = load i32, ptr %9, align 4
  switch i32 %226, label %228 [
    i32 2, label %227
  ]

227:                                              ; preds = %225
  store i32 0, ptr %2, align 4
  store i32 1, ptr %9, align 4
  br label %228

228:                                              ; preds = %227, %225, %86, %28
  call void @llvm.lifetime.end.p0(i64 4, ptr %8) #7
  call void @llvm.lifetime.end.p0(i64 8, ptr %7) #7
  call void @llvm.lifetime.end.p0(i64 8, ptr %6) #7
  call void @llvm.lifetime.end.p0(i64 8, ptr %5) #7
  call void @llvm.lifetime.end.p0(i64 8, ptr %4) #7
  %229 = load i32, ptr %2, align 4
  ret i32 %229
}