; Function Attrs: nounwind uwtable
define internal range(i32 -2147483648, 1) i32 @config_output(ptr noundef readonly captures(none) %0) #2 {
  %2 = load ptr, ptr %0, align 8, !tbaa !47
  %3 = getelementptr inbounds nuw i8, ptr %2, i64 72
  %4 = load ptr, ptr %3, align 8, !tbaa !4
  %5 = getelementptr inbounds nuw i8, ptr %2, i64 32
  %6 = load ptr, ptr %5, align 8, !tbaa !48
  %7 = load ptr, ptr %6, align 8, !tbaa !37
  %8 = getelementptr inbounds nuw i8, ptr %0, i64 36
  %9 = load i32, ptr %8, align 4, !tbaa !49
  %10 = tail call ptr @av_pix_fmt_desc_get(i32 noundef %9) #7
  %.not = icmp eq ptr %10, null
  br i1 %.not, label %.loopexit, label %11

11:                                               ; preds = %1
  %12 = load i32, ptr %8, align 4, !tbaa !49
  %13 = tail call i32 @av_pix_fmt_count_planes(i32 noundef %12) #7
  %14 = getelementptr inbounds nuw i8, ptr %4, i64 20
  store i32 %13, ptr %14, align 4, !tbaa !20
  %15 = getelementptr inbounds nuw i8, ptr %10, i64 40
  %16 = load i32, ptr %15, align 8, !tbaa !50
  %17 = getelementptr inbounds nuw i8, ptr %4, i64 16
  store i32 %16, ptr %17, align 8, !tbaa !52
  %18 = icmp slt i32 %16, 9
  %19 = icmp slt i32 %16, 17
  %20 = select i1 %19, ptr @lagfun_frame16, ptr @lagfun_frame32
  %21 = select i1 %18, ptr @lagfun_frame8, ptr %20
  %22 = getelementptr inbounds nuw i8, ptr %4, i64 104
  store ptr %21, ptr %22, align 8, !tbaa !45
  %23 = select i1 %19, ptr @lagfun_framed16, ptr @lagfun_framed32
  %24 = select i1 %18, ptr @lagfun_framed8, ptr %23
  %25 = getelementptr inbounds nuw i8, ptr %4, i64 112
  store ptr %24, ptr %25, align 8, !tbaa !45
  %26 = getelementptr inbounds nuw i8, ptr %4, i64 24
  %27 = getelementptr inbounds nuw i8, ptr %7, i64 36
  %28 = load i32, ptr %27, align 4, !tbaa !49
  %29 = getelementptr inbounds nuw i8, ptr %7, i64 40
  %30 = load i32, ptr %29, align 8, !tbaa !39
  %31 = tail call i32 @av_image_fill_linesizes(ptr noundef nonnull %26, i32 noundef %28, i32 noundef %30) #7
  %32 = icmp slt i32 %31, 0
  br i1 %32, label %.loopexit, label %33

33:                                               ; preds = %11
  %34 = load i32, ptr %29, align 8, !tbaa !39
  %35 = sub nsw i32 0, %34
  %36 = getelementptr inbounds nuw i8, ptr %10, i64 9
  %37 = load i8, ptr %36, align 1, !tbaa !53
  %38 = zext nneg i8 %37 to i32
  %39 = ashr i32 %35, %38
  %40 = sub nsw i32 0, %39
  %41 = getelementptr inbounds nuw i8, ptr %4, i64 40
  %42 = getelementptr inbounds nuw i8, ptr %4, i64 48
  store i32 %40, ptr %42, align 8, !tbaa !46
  %43 = getelementptr inbounds nuw i8, ptr %4, i64 44
  store i32 %40, ptr %43, align 4, !tbaa !46
  %44 = load i32, ptr %29, align 8, !tbaa !39
  %45 = getelementptr inbounds nuw i8, ptr %4, i64 52
  store i32 %44, ptr %45, align 4, !tbaa !46
  store i32 %44, ptr %41, align 8, !tbaa !46
  %46 = getelementptr inbounds nuw i8, ptr %7, i64 44
  %47 = load i32, ptr %46, align 4, !tbaa !40
  %48 = sub nsw i32 0, %47
  %49 = getelementptr inbounds nuw i8, ptr %10, i64 10
  %50 = load i8, ptr %49, align 2, !tbaa !56
  %51 = zext nneg i8 %50 to i32
  %52 = ashr i32 %48, %51
  %53 = sub nsw i32 0, %52
  %54 = getelementptr inbounds nuw i8, ptr %4, i64 56
  %55 = getelementptr inbounds nuw i8, ptr %4, i64 64
  store i32 %53, ptr %55, align 8, !tbaa !46
  %56 = getelementptr inbounds nuw i8, ptr %4, i64 60
  store i32 %53, ptr %56, align 4, !tbaa !46
  %57 = getelementptr inbounds nuw i8, ptr %7, i64 44
  %58 = load i32, ptr %57, align 4, !tbaa !40
  %59 = getelementptr inbounds nuw i8, ptr %4, i64 68
  store i32 %58, ptr %59, align 4, !tbaa !46
  store i32 %58, ptr %54, align 8, !tbaa !46
  %60 = load i32, ptr %14, align 4, !tbaa !20
  %.not6061 = icmp sgt i32 %60, 0
  br i1 %.not6061, label %.lr.ph, label %.loopexit

.lr.ph:                                           ; preds = %33
  %61 = getelementptr inbounds nuw i8, ptr %4, i64 72
  br label %65

62:                                               ; preds = %65
  %indvars.iv.next = add nuw nsw i64 %indvars.iv, 1
  %63 = load i32, ptr %14, align 4, !tbaa !20
  %64 = sext i32 %63 to i64
  %.not60 = icmp slt i64 %indvars.iv.next, %64
  br i1 %.not60, label %65, label %.loopexit, !llvm.loop !57

65:                                               ; preds = %.lr.ph, %62
  %indvars.iv = phi i64 [ 0, %.lr.ph ], [ %indvars.iv.next, %62 ]
  %66 = getelementptr inbounds nuw [4 x i32], ptr %41, i64 0, i64 %indvars.iv
  %67 = load i32, ptr %66, align 4, !tbaa !46
  %68 = getelementptr inbounds nuw [4 x i32], ptr %54, i64 0, i64 %indvars.iv
  %69 = load i32, ptr %68, align 4, !tbaa !46
  %70 = mul nsw i32 %69, %67
  %71 = sext i32 %70 to i64
  %72 = tail call noalias ptr @av_calloc(i64 noundef %71, i64 noundef 4) #7
  %73 = getelementptr inbounds nuw [4 x ptr], ptr %61, i64 0, i64 %indvars.iv
  store ptr %72, ptr %73, align 8, !tbaa !58
  %.not59 = icmp eq ptr %72, null
  br i1 %.not59, label %.loopexit, label %62

.loopexit:                                        ; preds = %65, %62, %33, %11, %1
  %.054 = phi i32 [ -558323010, %1 ], [ %31, %11 ], [ 0, %33 ], [ -12, %65 ], [ 0, %62 ]
  ret i32 %.054
}